target datalayout = "e-m:e-p270:32:32-p271:32:32-p272:64:64-i64:64-i128:128-f80:128-n8:16:32:64-S128"
target triple = "x86_64-pc-linux-gnu"

; Function Attrs: nounwind uwtable
define internal void @uyyvyyToY_c(ptr noundef %0, ptr noundef %1, ptr noundef %2, ptr noundef %3, i32 noundef %4, ptr noundef %5, ptr noundef %6) #2 {
  %8 = alloca ptr, align 8
  %9 = alloca ptr, align 8
  %10 = alloca ptr, align 8
  %11 = alloca ptr, align 8
  %12 = alloca i32, align 4
  %13 = alloca ptr, align 8
  %14 = alloca ptr, align 8
  %15 = alloca i32, align 4
  store ptr %0, ptr %8, align 8, !tbaa !34
  store ptr %1, ptr %9, align 8, !tbaa !34
  store ptr %2, ptr %10, align 8, !tbaa !34
  store ptr %3, ptr %11, align 8, !tbaa !34
  store i32 %4, ptr %12, align 4, !tbaa !30
  store ptr %5, ptr %13, align 8, !tbaa !35
  store ptr %6, ptr %14, align 8, !tbaa !31
  call void @llvm.lifetime.start.p0(i64 4, ptr %15) #9
  store i32 0, ptr %15, align 4, !tbaa !30
  br label %16

16:                                               ; preds = %37, %7
  %17 = load i32, ptr %15, align 4, !tbaa !30
  %18 = load i32, ptr %12, align 4, !tbaa !30
  %19 = icmp slt i32 %17, %18
  br i1 %19, label %21, label %20

20:                                               ; preds = %16
  call void @llvm.lifetime.end.p0(i64 4, ptr %15) #9
  br label %40

21:                                               ; preds = %16
  %22 = load ptr, ptr %9, align 8, !tbaa !34
  %23 = load i32, ptr %15, align 4, !tbaa !30
  %24 = ashr i32 %23, 1
  %25 = mul nsw i32 3, %24
  %26 = add nsw i32 %25, 1
  %27 = load i32, ptr %15, align 4, !tbaa !30
  %28 = and i32 %27, 1
  %29 = add nsw i32 %26, %28
  %30 = sext i32 %29 to i64
  %31 = getelementptr inbounds i8, ptr %22, i64 %30
  %32 = load i8, ptr %31, align 1, !tbaa !36
  %33 = load ptr, ptr %8, align 8, !tbaa !34
  %34 = load i32, ptr %15, align 4, !tbaa !30
  %35 = sext i32 %34 to i64
  %36 = getelementptr inbounds i8, ptr %33, i64 %35
  store i8 %32, ptr %36, align 1, !tbaa !36
  br label %37

37:                                               ; preds = %21
  %38 = load i32, ptr %15, align 4, !tbaa !30
  %39 = add nsw i32 %38, 1
  store i32 %39, ptr %15, align 4, !tbaa !30
  br label %16, !llvm.loop !89

40:                                               ; preds = %20
  ret void
}